; ModuleID = '4/784.cpp'
source_filename = "4/784.cpp"
target datalayout = "e-m:e-p270:32:32-p271:32:32-p272:64:64-i64:64-f80:128-n8:16:32:64-S128"
target triple = "x86_64-pc-linux-gnu"

%"class.std::ios_base::Init" = type { i8 }
%"class.std::basic_istream" = type { i32 (...)**, i64, %"class.std::basic_ios" }
%"class.std::basic_ios" = type { %"class.std::ios_base", %"class.std::basic_ostream"*, i8, i8, %"class.std::basic_streambuf"*, %"class.std::ctype"*, %"class.std::num_put"*, %"class.std::num_get"* }
%"class.std::ios_base" = type { i32 (...)**, i64, i64, i32, i32, i32, %"struct.std::ios_base::_Callback_list"*, %"struct.std::ios_base::_Words", [8 x %"struct.std::ios_base::_Words"], i32, %"struct.std::ios_base::_Words"*, %"class.std::locale" }
%"struct.std::ios_base::_Callback_list" = type { %"struct.std::ios_base::_Callback_list"*, void (i32, %"class.std::ios_base"*, i32)*, i32, i32 }
%"struct.std::ios_base::_Words" = type { i8*, i64 }
%"class.std::locale" = type { %"class.std::locale::_Impl"* }
%"class.std::locale::_Impl" = type { i32, %"class.std::locale::facet"**, i64, %"class.std::locale::facet"**, i8** }
%"class.std::locale::facet" = type <{ i32 (...)**, i32, [4 x i8] }>
%"class.std::basic_ostream" = type { i32 (...)**, %"class.std::basic_ios" }
%"class.std::basic_streambuf" = type { i32 (...)**, i8*, i8*, i8*, i8*, i8*, i8*, %"class.std::locale" }
%"class.std::ctype" = type <{ %"class.std::locale::facet.base", [4 x i8], %struct.__locale_struct*, i8, [7 x i8], i32*, i32*, i16*, i8, [256 x i8], [256 x i8], i8, [6 x i8] }>
%"class.std::locale::facet.base" = type <{ i32 (...)**, i32 }>
%struct.__locale_struct = type { [13 x %struct.__locale_data*], i16*, i32*, i32*, [13 x i8*] }
%struct.__locale_data = type opaque
%"class.std::num_put" = type { %"class.std::locale::facet.base", [4 x i8] }
%"class.std::num_get" = type { %"class.std::locale::facet.base", [4 x i8] }

@_ZStL8__ioinit = internal global %"class.std::ios_base::Init" zeroinitializer, align 1
@__dso_handle = external hidden global i8
@_ZSt3cin = external dso_local global %"class.std::basic_istream", align 8
@_ZSt4cout = external dso_local global %"class.std::basic_ostream", align 8
@llvm.global_ctors = appending global [1 x { i32, void ()*, i8* }] [{ i32, void ()*, i8* } { i32 65535, void ()* @_GLOBAL__sub_I_784.cpp, i8* null }]

; Function Attrs: noinline uwtable
define internal void @__cxx_global_var_init() #0 section ".text.startup" {
  call void @_ZNSt8ios_base4InitC1Ev(%"class.std::ios_base::Init"* @_ZStL8__ioinit)
  %1 = call i32 @__cxa_atexit(void (i8*)* bitcast (void (%"class.std::ios_base::Init"*)* @_ZNSt8ios_base4InitD1Ev to void (i8*)*), i8* getelementptr inbounds (%"class.std::ios_base::Init", %"class.std::ios_base::Init"* @_ZStL8__ioinit, i32 0, i32 0), i8* @__dso_handle) #3
  ret void
}

declare dso_local void @_ZNSt8ios_base4InitC1Ev(%"class.std::ios_base::Init"*) unnamed_addr #1

; Function Attrs: nounwind
declare dso_local void @_ZNSt8ios_base4InitD1Ev(%"class.std::ios_base::Init"*) unnamed_addr #2

; Function Attrs: nounwind
declare dso_local i32 @__cxa_atexit(void (i8*)*, i8*, i8*) #3

; Function Attrs: noinline norecurse uwtable
define dso_local i32 @main() #4 {
  %1 = alloca i32, align 4
  %2 = alloca i32, align 4
  %3 = alloca i32, align 4
  %4 = alloca [100 x [100 x i32]], align 16
  %5 = alloca [100 x i32]*, align 8
  %6 = alloca i32*, align 8
  %7 = alloca i32, align 4
  %8 = alloca i32, align 4
  %9 = alloca i32, align 4
  %10 = alloca i32, align 4
  store i32 0, i32* %1, align 4
  store i32 0, i32* %2, align 4
  store i32 0, i32* %3, align 4
  %11 = getelementptr inbounds [100 x [100 x i32]], [100 x [100 x i32]]* %4, i64 0, i64 0
  store [100 x i32]* %11, [100 x i32]** %5, align 8
  %12 = load [100 x i32]*, [100 x i32]** %5, align 8
  %13 = getelementptr inbounds [100 x i32], [100 x i32]* %12, i64 0, i64 0
  store i32* %13, i32** %6, align 8
  %14 = call dereferenceable(280) %"class.std::basic_istream"* @_ZNSirsERi(%"class.std::basic_istream"* @_ZSt3cin, i32* dereferenceable(4) %2)
  %15 = call dereferenceable(280) %"class.std::basic_istream"* @_ZNSirsERi(%"class.std::basic_istream"* %14, i32* dereferenceable(4) %3)
  store i32 0, i32* %7, align 4
  br label %16

16:                                               ; preds = %37, %0
  %17 = load i32, i32* %7, align 4
  %18 = load i32, i32* %2, align 4
  %19 = icmp slt i32 %17, %18
  br i1 %19, label %20, label %40

20:                                               ; preds = %16
  store i32 0, i32* %8, align 4
  br label %21

21:                                               ; preds = %33, %20
  %22 = load i32, i32* %8, align 4
  %23 = load i32, i32* %3, align 4
  %24 = icmp slt i32 %22, %23
  br i1 %24, label %25, label %36

25:                                               ; preds = %21
  %26 = load i32, i32* %7, align 4
  %27 = sext i32 %26 to i64
  %28 = getelementptr inbounds [100 x [100 x i32]], [100 x [100 x i32]]* %4, i64 0, i64 %27
  %29 = load i32, i32* %8, align 4
  %30 = sext i32 %29 to i64
  %31 = getelementptr inbounds [100 x i32], [100 x i32]* %28, i64 0, i64 %30
  %32 = call dereferenceable(280) %"class.std::basic_istream"* @_ZNSirsERi(%"class.std::basic_istream"* @_ZSt3cin, i32* dereferenceable(4) %31)
  br label %33

33:                                               ; preds = %25
  %34 = load i32, i32* %8, align 4
  %35 = add nsw i32 %34, 1
  store i32 %35, i32* %8, align 4
  br label %21

36:                                               ; preds = %21
  br label %37

37:                                               ; preds = %36
  %38 = load i32, i32* %7, align 4
  %39 = add nsw i32 %38, 1
  store i32 %39, i32* %7, align 4
  br label %16

40:                                               ; preds = %16
  store i32 0, i32* %9, align 4
  store i32 0, i32* %10, align 4
  br label %41

41:                                               ; preds = %113, %40
  %42 = load i32*, i32** %6, align 8
  %43 = load i32, i32* %2, align 4
  %44 = sub nsw i32 %43, 1
  %45 = sext i32 %44 to i64
  %46 = getelementptr inbounds [100 x [100 x i32]], [100 x [100 x i32]]* %4, i64 0, i64 %45
  %47 = getelementptr inbounds [100 x i32], [100 x i32]* %46, i64 0, i64 0
  %48 = load i32, i32* %3, align 4
  %49 = sext i32 %48 to i64
  %50 = getelementptr inbounds i32, i32* %47, i64 %49
  %51 = getelementptr inbounds i32, i32* %50, i64 -1
  %52 = icmp ne i32* %42, %51
  br i1 %52, label %53, label %114

53:                                               ; preds = %41
  %54 = load i32*, i32** %6, align 8
  %55 = load i32, i32* %54, align 4
  %56 = call dereferenceable(272) %"class.std::basic_ostream"* @_ZNSolsEi(%"class.std::basic_ostream"* @_ZSt4cout, i32 %55)
  %57 = call dereferenceable(272) %"class.std::basic_ostream"* @_ZNSolsEPFRSoS_E(%"class.std::basic_ostream"* %56, %"class.std::basic_ostream"* (%"class.std::basic_ostream"*)* @_ZSt4endlIcSt11char_traitsIcEERSt13basic_ostreamIT_T0_ES6_)
  %58 = load i32*, i32** %6, align 8
  %59 = load [100 x i32]*, [100 x i32]** %5, align 8
  %60 = getelementptr inbounds [100 x i32], [100 x i32]* %59, i64 0, i64 0
  %61 = icmp eq i32* %58, %60
  br i1 %61, label %71, label %62

62:                                               ; preds = %53
  %63 = load [100 x i32]*, [100 x i32]** %5, align 8
  %64 = getelementptr inbounds [100 x i32], [100 x i32]* %63, i64 0, i64 0
  %65 = load i32, i32* %2, align 4
  %66 = sub nsw i32 %65, 1
  %67 = sext i32 %66 to i64
  %68 = getelementptr inbounds [100 x [100 x i32]], [100 x [100 x i32]]* %4, i64 0, i64 %67
  %69 = getelementptr inbounds [100 x i32], [100 x i32]* %68, i64 0, i64 0
  %70 = icmp eq i32* %64, %69
  br i1 %70, label %71, label %104

71:                                               ; preds = %62, %53
  %72 = load i32, i32* %9, align 4
  %73 = add nsw i32 %72, 1
  store i32 %73, i32* %9, align 4
  %74 = load i32, i32* %9, align 4
  %75 = load i32, i32* %3, align 4
  %76 = icmp sge i32 %74, %75
  br i1 %76, label %77, label %95

77:                                               ; preds = %71
  %78 = getelementptr inbounds [100 x [100 x i32]], [100 x [100 x i32]]* %4, i64 0, i64 0
  %79 = load i32, i32* %9, align 4
  %80 = sext i32 %79 to i64
  %81 = getelementptr inbounds [100 x i32], [100 x i32]* %78, i64 %80
  %82 = getelementptr inbounds [100 x i32], [100 x i32]* %81, i64 1
  %83 = load i32, i32* %3, align 4
  %84 = sext i32 %83 to i64
  %85 = sub i64 0, %84
  %86 = getelementptr inbounds [100 x i32], [100 x i32]* %82, i64 %85
  store [100 x i32]* %86, [100 x i32]** %5, align 8
  %87 = load [100 x i32]*, [100 x i32]** %5, align 8
  %88 = getelementptr inbounds [100 x i32], [100 x i32]* %87, i64 0, i64 0
  %89 = load i32, i32* %3, align 4
  %90 = sext i32 %89 to i64
  %91 = getelementptr inbounds i32, i32* %88, i64 %90
  %92 = getelementptr inbounds i32, i32* %91, i64 -1
  store i32* %92, i32** %6, align 8
  %93 = load i32, i32* %3, align 4
  %94 = sub nsw i32 %93, 1
  store i32 %94, i32* %10, align 4
  br label %103

95:                                               ; preds = %71
  %96 = getelementptr inbounds [100 x [100 x i32]], [100 x [100 x i32]]* %4, i64 0, i64 0
  store [100 x i32]* %96, [100 x i32]** %5, align 8
  %97 = load [100 x i32]*, [100 x i32]** %5, align 8
  %98 = getelementptr inbounds [100 x i32], [100 x i32]* %97, i64 0, i64 0
  %99 = load i32, i32* %9, align 4
  %100 = sext i32 %99 to i64
  %101 = getelementptr inbounds i32, i32* %98, i64 %100
  store i32* %101, i32** %6, align 8
  %102 = load i32, i32* %9, align 4
  store i32 %102, i32* %10, align 4
  br label %103

103:                                              ; preds = %95, %77
  br label %113

104:                                              ; preds = %62
  %105 = load [100 x i32]*, [100 x i32]** %5, align 8
  %106 = getelementptr inbounds [100 x i32], [100 x i32]* %105, i32 1
  store [100 x i32]* %106, [100 x i32]** %5, align 8
  %107 = load [100 x i32]*, [100 x i32]** %5, align 8
  %108 = getelementptr inbounds [100 x i32], [100 x i32]* %107, i64 0, i64 0
  %109 = load i32, i32* %10, align 4
  %110 = add nsw i32 %109, -1
  store i32 %110, i32* %10, align 4
  %111 = sext i32 %110 to i64
  %112 = getelementptr inbounds i32, i32* %108, i64 %111
  store i32* %112, i32** %6, align 8
  br label %113

113:                                              ; preds = %104, %103
  br label %41

114:                                              ; preds = %41
  %115 = load i32*, i32** %6, align 8
  %116 = load i32, i32* %115, align 4
  %117 = call dereferenceable(272) %"class.std::basic_ostream"* @_ZNSolsEi(%"class.std::basic_ostream"* @_ZSt4cout, i32 %116)
  ret i32 0
}

declare dso_local dereferenceable(280) %"class.std::basic_istream"* @_ZNSirsERi(%"class.std::basic_istream"*, i32* dereferenceable(4)) #1

declare dso_local dereferenceable(272) %"class.std::basic_ostream"* @_ZNSolsEi(%"class.std::basic_ostream"*, i32) #1

declare dso_local dereferenceable(272) %"class.std::basic_ostream"* @_ZNSolsEPFRSoS_E(%"class.std::basic_ostream"*, %"class.std::basic_ostream"* (%"class.std::basic_ostream"*)*) #1

declare dso_local dereferenceable(272) %"class.std::basic_ostream"* @_ZSt4endlIcSt11char_traitsIcEERSt13basic_ostreamIT_T0_ES6_(%"class.std::basic_ostream"* dereferenceable(272)) #1

; Function Attrs: noinline uwtable
define internal void @_GLOBAL__sub_I_784.cpp() #0 section ".text.startup" {
  call void @__cxx_global_var_init()
  ret void
}


!llvm.module.flags = !{!0}
!llvm.ident = !{!1}

!0 = !{i32 1, !"wchar_size", i32 4}
!1 = !{!"clang version 10.0.0-4ubuntu1 "}
